target datalayout = "e-m:e-p270:32:32-p271:32:32-p272:64:64-i64:64-i128:128-f80:128-n8:16:32:64-S128"
target triple = "x86_64-pc-linux-gnu"

%struct.reassembly_table = type { ptr, ptr, ptr, ptr, ptr }
%struct.reassembly_table_functions = type { ptr, ptr, ptr, ptr, ptr, ptr }

@proto_register_ippusb.ett = internal global [6 x ptr] [ptr @ett_ippusb, ptr @ett_ippusb_as, ptr @ett_ippusb_attr, ptr @ett_ippusb_member, ptr @ett_ippusb_fragments, ptr @ett_ippusb_fragment], align 16
@.str.30 = private unnamed_addr constant [36 x i8] c"Internet Printing Protocol Over USB\00", align 1
@.str.31 = private unnamed_addr constant [7 x i8] c"IPPUSB\00", align 1
@.str.32 = private unnamed_addr constant [7 x i8] c"ippusb\00", align 1
@proto_ippusb = internal global i32 0, align 4
@.str.33 = private unnamed_addr constant [13 x i8] c"IPP Over USB\00", align 1
@ippusb_dissector_table = internal global ptr null, align 8
@ippusb_reassembly_table = internal global %struct.reassembly_table zeroinitializer, align 8
@ippusb_reassembly_table_functions = internal global %struct.reassembly_table_functions { ptr @g_direct_hash, ptr @g_direct_equal, ptr @ippusb_temporary_key, ptr @ippusb_persistent_key, ptr @ippusb_free_temporary_key, ptr @ippusb_free_persistent_key }, align 8
@.str.34 = private unnamed_addr constant [19 x i8] c"attempt_reassembly\00", align 1
@.str.35 = private unnamed_addr constant [19 x i8] c"Reassemble payload\00", align 1
@.str.36 = private unnamed_addr constant [1 x i8] zeroinitializer, align 1
@global_ippusb_reassemble = internal global i8 1, align 1
@RETURN_NEWLINE = internal constant [2 x i8] c"\0D\0A", align 1
@return_newline_tvb = internal global ptr null, align 8
@ippusb_handle = internal global ptr null, align 8

; Function Attrs: null_pointer_is_valid sspstrong uwtable
define hidden void @proto_register_ippusb() #0 {
  %1 = alloca ptr, align 8
  %2 = call i32 @proto_register_protocol(ptr noundef @.str.30, ptr noundef @.str.31, ptr noundef @.str.32)
  store i32 %2, ptr @proto_ippusb, align 4
  %3 = load i32, ptr @proto_ippusb, align 4
  %4 = call ptr @register_dissector_table(ptr noundef @.str.32, ptr noundef @.str.33, i32 noundef %3, i32 noundef 4, i32 noundef 1)
  store ptr %4, ptr @ippusb_dissector_table, align 8
  %5 = load i32, ptr @proto_ippusb, align 4
  call void @proto_register_field_array(i32 noundef %5, ptr noundef @proto_register_ippusb.hf, i32 noundef 11)
  call void @proto_register_subtree_array(ptr noundef @proto_register_ippusb.ett, i32 noundef 6)
  call void @reassembly_table_register(ptr noundef @ippusb_reassembly_table, ptr noundef @ippusb_reassembly_table_functions)
  call void @llvm.lifetime.start.p0(i64 8, ptr %1) #7
  %6 = load i32, ptr @proto_ippusb, align 4
  %7 = call ptr @prefs_register_protocol(i32 noundef %6, ptr noundef null)
  store ptr %7, ptr %1, align 8
  %8 = load ptr, ptr %1, align 8
  call void @prefs_register_bool_preference(ptr noundef %8, ptr noundef @.str.34, ptr noundef @.str.35, ptr noundef @.str.36, ptr noundef @global_ippusb_reassemble)
  %9 = call ptr @tvb_new_real_data(ptr noundef @RETURN_NEWLINE, i32 noundef 2, i32 noundef 2)
  store ptr %9, ptr @return_newline_tvb, align 8
  call void @register_shutdown_routine(ptr noundef @ippusb_shutdown)
  %10 = load i32, ptr @proto_ippusb, align 4
  %11 = call ptr @register_dissector(ptr noundef @.str.32, ptr noundef @dissect_ippusb, i32 noundef %10)
  store ptr %11, ptr @ippusb_handle, align 8
  call void @llvm.lifetime.end.p0(i64 8, ptr %1) #7
  ret void
}