; Function Attrs: null_pointer_is_valid sspstrong uwtable
define hidden void @proto_register_ippusb() local_unnamed_addr #0 {
  %1 = tail call i32 @proto_register_protocol(ptr noundef nonnull @.str.30, ptr noundef nonnull @.str.31, ptr noundef nonnull @.str.32)
  store i32 %1, ptr @proto_ippusb, align 4
  %2 = tail call ptr @register_dissector_table(ptr noundef nonnull @.str.32, ptr noundef nonnull @.str.33, i32 noundef %1, i32 noundef 4, i32 noundef 1)
  store ptr %2, ptr @ippusb_dissector_table, align 8
  %3 = load i32, ptr @proto_ippusb, align 4
  tail call void @proto_register_field_array(i32 noundef %3, ptr noundef nonnull @proto_register_ippusb.hf, i32 noundef 11)
  tail call void @proto_register_subtree_array(ptr noundef nonnull @proto_register_ippusb.ett, i32 noundef 6)
  tail call void @reassembly_table_register(ptr noundef nonnull @ippusb_reassembly_table, ptr noundef nonnull @ippusb_reassembly_table_functions)
  %4 = load i32, ptr @proto_ippusb, align 4
  %5 = tail call ptr @prefs_register_protocol(i32 noundef %4, ptr noundef null)
  tail call void @prefs_register_bool_preference(ptr noundef %5, ptr noundef nonnull @.str.34, ptr noundef nonnull @.str.35, ptr noundef nonnull @.str.36, ptr noundef nonnull @global_ippusb_reassemble)
  %6 = tail call ptr @tvb_new_real_data(ptr noundef nonnull @RETURN_NEWLINE, i32 noundef 2, i32 noundef 2)
  store ptr %6, ptr @return_newline_tvb, align 8
  tail call void @register_shutdown_routine(ptr noundef nonnull @ippusb_shutdown)
  %7 = load i32, ptr @proto_ippusb, align 4
  %8 = tail call ptr @register_dissector(ptr noundef nonnull @.str.32, ptr noundef nonnull @dissect_ippusb, i32 noundef %7)
  store ptr %8, ptr @ippusb_handle, align 8
  ret void
}